target datalayout = "e-m:e-p270:32:32-p271:32:32-p272:64:64-i64:64-i128:128-f80:128-n8:16:32:64-S128"
target triple = "x86_64-unknown-linux-gnu"

%struct.ChardevClass = type { %struct.ObjectClass, i8, i8, ptr, ptr, ptr, ptr, ptr, ptr, ptr, ptr, ptr, ptr, ptr, ptr, ptr, ptr, ptr, ptr }
%struct.ObjectClass = type { ptr, ptr, [4 x ptr], [4 x ptr], ptr, ptr }

@.str.4 = private unnamed_addr constant [8 x i8] c"chardev\00", align 1
@.str.104 = private unnamed_addr constant [101 x i8] c"/home/dtcxzyw/WorkSpace/Projects/compilers/llvm-opt-benchmark/bench/qemu/qemu/include/chardev/char.h\00", align 1
@__func__.CHARDEV_GET_CLASS = private unnamed_addr constant [18 x i8] c"CHARDEV_GET_CLASS\00", align 1

; Function Attrs: nounwind sspstrong uwtable
define internal ptr @CHARDEV_GET_CLASS(ptr noundef %obj) #0 {
entry:
  %obj.addr = alloca ptr, align 8
  store ptr %obj, ptr %obj.addr, align 8
  %0 = load ptr, ptr %obj.addr, align 8
  %call = call ptr @object_get_class(ptr noundef %0)
  %call1 = call ptr @object_class_dynamic_cast_assert(ptr noundef %call, ptr noundef @.str.4, ptr noundef @.str.104, i32 noundef 231, ptr noundef @__func__.CHARDEV_GET_CLASS)
  ret ptr %call1
}

; Function Attrs: nounwind sspstrong uwtable
define dso_local i32 @qemu_chr_wait_connected(ptr noundef %chr, ptr noundef %errp) #0 {
entry:
  %retval = alloca i32, align 4
  %chr.addr = alloca ptr, align 8
  %errp.addr = alloca ptr, align 8
  %cc = alloca ptr, align 8
  store ptr %chr, ptr %chr.addr, align 8
  store ptr %errp, ptr %errp.addr, align 8
  %0 = load ptr, ptr %chr.addr, align 8
  %call = call ptr @CHARDEV_GET_CLASS(ptr noundef %0)
  store ptr %call, ptr %cc, align 8
  %1 = load ptr, ptr %cc, align 8
  %chr_wait_connected = getelementptr inbounds %struct.ChardevClass, ptr %1, i32 0, i32 13
  %2 = load ptr, ptr %chr_wait_connected, align 8
  %tobool = icmp ne ptr %2, null
  br i1 %tobool, label %if.then, label %if.end

if.then:                                          ; preds = %entry
  %3 = load ptr, ptr %cc, align 8
  %chr_wait_connected1 = getelementptr inbounds %struct.ChardevClass, ptr %3, i32 0, i32 13
  %4 = load ptr, ptr %chr_wait_connected1, align 8
  %5 = load ptr, ptr %chr.addr, align 8
  %6 = load ptr, ptr %errp.addr, align 8
  %call2 = call i32 %4(ptr noundef %5, ptr noundef %6)
  store i32 %call2, ptr %retval, align 4
  br label %return

if.end:                                           ; preds = %entry
  store i32 0, ptr %retval, align 4
  br label %return

return:                                           ; preds = %if.end, %if.then
  %7 = load i32, ptr %retval, align 4
  ret i32 %7
}