; Function Attrs: nounwind sspstrong uwtable
define dso_local i32 @qemu_chr_wait_connected(ptr noundef %chr, ptr noundef %errp) local_unnamed_addr #0 {
entry:
  %call.i = tail call ptr @object_get_class(ptr noundef %chr) #13
  %call1.i = tail call ptr @object_class_dynamic_cast_assert(ptr noundef %call.i, ptr noundef nonnull @.str.4, ptr noundef nonnull @.str.104, i32 noundef 231, ptr noundef nonnull @__func__.CHARDEV_GET_CLASS) #13
  %chr_wait_connected = getelementptr inbounds nuw i8, ptr %call1.i, i64 184
  %0 = load ptr, ptr %chr_wait_connected, align 8
  %tobool.not = icmp eq ptr %0, null
  br i1 %tobool.not, label %return, label %if.then

if.then:                                          ; preds = %entry
  %call2 = tail call i32 %0(ptr noundef %chr, ptr noundef %errp) #13
  br label %return

return:                                           ; preds = %entry, %if.then
  %retval.0 = phi i32 [ %call2, %if.then ], [ 0, %entry ]
  ret i32 %retval.0
}